; Function Attrs: mustprogress uwtable
define hidden void @_ZN5osgeo4proj2cs11SphericalCSC2ERKSt6vectorIN7dropbox6oxygen2nnISt10shared_ptrINS1_20CoordinateSystemAxisEEEESaISA_EE(ptr noundef nonnull align 8 dereferenceable(56) %0, ptr noundef nonnull readonly align 8 captures(none) dereferenceable(24) %1) unnamed_addr #0 align 2 {
  tail call void @_ZN5osgeo4proj2cs16CoordinateSystemC2ERKSt6vectorIN7dropbox6oxygen2nnISt10shared_ptrINS1_20CoordinateSystemAxisEEEESaISA_EE(ptr noundef nonnull align 8 dereferenceable(56) %0, ptr noundef nonnull align 8 dereferenceable(24) %1)
  store ptr getelementptr inbounds nuw inrange(-16, 56) (i8, ptr @_ZTVN5osgeo4proj2cs11SphericalCSE, i64 16), ptr %0, align 8, !tbaa !3
  %3 = getelementptr inbounds nuw i8, ptr %0, i64 16
  store ptr getelementptr inbounds nuw inrange(-16, 24) (i8, ptr @_ZTVN5osgeo4proj2cs11SphericalCSE, i64 88), ptr %3, align 8, !tbaa !3
  %4 = getelementptr inbounds nuw i8, ptr %0, i64 24
  store ptr getelementptr inbounds nuw inrange(-16, 24) (i8, ptr @_ZTVN5osgeo4proj2cs11SphericalCSE, i64 128), ptr %4, align 8, !tbaa !3
  %5 = getelementptr inbounds nuw i8, ptr %0, i64 40
  store ptr getelementptr inbounds nuw inrange(-16, 24) (i8, ptr @_ZTVN5osgeo4proj2cs11SphericalCSE, i64 168), ptr %5, align 8, !tbaa !3
  ret void
}